target datalayout = "e-m:e-p270:32:32-p271:32:32-p272:64:64-i64:64-i128:128-f80:128-n8:16:32:64-S128"
target triple = "x86_64-pc-linux-gnu"

%struct._PyRWMutex = type { i64 }

; Function Attrs: inlinehint nounwind uwtable
define internal i32 @_Py_atomic_compare_exchange_uintptr(ptr noundef %0, ptr noundef %1, i64 noundef %2) #2 {
  %4 = alloca ptr, align 8
  %5 = alloca ptr, align 8
  %6 = alloca i64, align 8
  %7 = alloca i64, align 8
  %8 = alloca i8, align 1
  store ptr %0, ptr %4, align 8, !tbaa !30
  store ptr %1, ptr %5, align 8, !tbaa !30
  store i64 %2, ptr %6, align 8, !tbaa !9
  %9 = load ptr, ptr %4, align 8, !tbaa !30
  %10 = load ptr, ptr %5, align 8, !tbaa !30
  %11 = load i64, ptr %6, align 8, !tbaa !9
  store i64 %11, ptr %7, align 8, !tbaa !9
  %12 = load i64, ptr %10, align 8
  %13 = load i64, ptr %7, align 8
  %14 = cmpxchg ptr %9, i64 %12, i64 %13 seq_cst seq_cst, align 8
  %15 = extractvalue { i64, i1 } %14, 0
  %16 = extractvalue { i64, i1 } %14, 1
  br i1 %16, label %18, label %17

17:                                               ; preds = %3
  store i64 %15, ptr %10, align 8
  br label %18

18:                                               ; preds = %17, %3
  %19 = zext i1 %16 to i8
  store i8 %19, ptr %8, align 1, !tbaa !19
  %20 = load i8, ptr %8, align 1, !tbaa !19, !range !21, !noundef !22
  %21 = trunc i8 %20 to i1
  %22 = zext i1 %21 to i32
  ret i32 %22
}

; Function Attrs: nounwind uwtable
define internal i64 @rwmutex_set_parked_and_wait(ptr noundef %0, i64 noundef %1) #0 {
  %3 = alloca i64, align 8
  %4 = alloca ptr, align 8
  %5 = alloca i64, align 8
  %6 = alloca i64, align 8
  %7 = alloca i32, align 4
  store ptr %0, ptr %4, align 8, !tbaa !25
  store i64 %1, ptr %5, align 8, !tbaa !9
  %8 = load i64, ptr %5, align 8, !tbaa !9
  %9 = and i64 %8, 2
  %10 = icmp eq i64 %9, 0
  br i1 %10, label %11, label %26

11:                                               ; preds = %2
  call void @llvm.lifetime.start.p0(i64 8, ptr %6) #7
  %12 = load i64, ptr %5, align 8, !tbaa !9
  %13 = or i64 %12, 2
  store i64 %13, ptr %6, align 8, !tbaa !9
  %14 = load ptr, ptr %4, align 8, !tbaa !25
  %15 = getelementptr inbounds nuw %struct._PyRWMutex, ptr %14, i32 0, i32 0
  %16 = load i64, ptr %6, align 8, !tbaa !9
  %17 = call i32 @_Py_atomic_compare_exchange_uintptr(ptr noundef %15, ptr noundef %5, i64 noundef %16)
  %18 = icmp ne i32 %17, 0
  br i1 %18, label %21, label %19

19:                                               ; preds = %11
  %20 = load i64, ptr %5, align 8, !tbaa !9
  store i64 %20, ptr %3, align 8
  store i32 1, ptr %7, align 4
  br label %23

21:                                               ; preds = %11
  %22 = load i64, ptr %6, align 8, !tbaa !9
  store i64 %22, ptr %5, align 8, !tbaa !9
  store i32 0, ptr %7, align 4
  br label %23

23:                                               ; preds = %21, %19
  call void @llvm.lifetime.end.p0(i64 8, ptr %6) #7
  %24 = load i32, ptr %7, align 4
  switch i32 %24, label %35 [
    i32 0, label %25
    i32 1, label %33
  ]

25:                                               ; preds = %23
  br label %26

26:                                               ; preds = %25, %2
  %27 = load ptr, ptr %4, align 8, !tbaa !25
  %28 = getelementptr inbounds nuw %struct._PyRWMutex, ptr %27, i32 0, i32 0
  %29 = call i32 @_PyParkingLot_Park(ptr noundef %28, ptr noundef %5, i64 noundef 8, i64 noundef -1, ptr noundef null, i32 noundef 1)
  %30 = load ptr, ptr %4, align 8, !tbaa !25
  %31 = getelementptr inbounds nuw %struct._PyRWMutex, ptr %30, i32 0, i32 0
  %32 = call i64 @_Py_atomic_load_uintptr_relaxed(ptr noundef %31)
  store i64 %32, ptr %3, align 8
  br label %33

33:                                               ; preds = %26, %23
  %34 = load i64, ptr %3, align 8
  ret i64 %34

35:                                               ; preds = %23
  unreachable
}

; Function Attrs: inlinehint nounwind uwtable
define internal i64 @_Py_atomic_load_uintptr_relaxed(ptr noundef %0) #2 {
  %2 = alloca ptr, align 8
  %3 = alloca i64, align 8
  store ptr %0, ptr %2, align 8, !tbaa !30
  %4 = load ptr, ptr %2, align 8, !tbaa !30
  %5 = load atomic i64, ptr %4 monotonic, align 8
  store i64 %5, ptr %3, align 8
  %6 = load i64, ptr %3, align 8, !tbaa !9
  ret i64 %6
}

; Function Attrs: nounwind uwtable
define dso_local void @_PyRWMutex_RLock(ptr noundef %0) #0 {
  %2 = alloca ptr, align 8
  %3 = alloca i64, align 8
  %4 = alloca i64, align 8
  %5 = alloca i32, align 4
  store ptr %0, ptr %2, align 8, !tbaa !25
  call void @llvm.lifetime.start.p0(i64 8, ptr %3) #7
  %6 = load ptr, ptr %2, align 8, !tbaa !25
  %7 = getelementptr inbounds nuw %struct._PyRWMutex, ptr %6, i32 0, i32 0
  %8 = call i64 @_Py_atomic_load_uintptr_relaxed(ptr noundef %7)
  store i64 %8, ptr %3, align 8, !tbaa !9
  br label %9

9:                                                ; preds = %35, %21, %13, %1
  %10 = load i64, ptr %3, align 8, !tbaa !9
  %11 = and i64 %10, 1
  %12 = icmp ne i64 %11, 0
  br i1 %12, label %13, label %17

13:                                               ; preds = %9
  %14 = load ptr, ptr %2, align 8, !tbaa !25
  %15 = load i64, ptr %3, align 8, !tbaa !9
  %16 = call i64 @rwmutex_set_parked_and_wait(ptr noundef %14, i64 noundef %15)
  store i64 %16, ptr %3, align 8, !tbaa !9
  br label %9

17:                                               ; preds = %9
  %18 = load i64, ptr %3, align 8, !tbaa !9
  %19 = and i64 %18, 2
  %20 = icmp ne i64 %19, 0
  br i1 %20, label %21, label %25

21:                                               ; preds = %17
  %22 = load ptr, ptr %2, align 8, !tbaa !25
  %23 = load i64, ptr %3, align 8, !tbaa !9
  %24 = call i64 @rwmutex_set_parked_and_wait(ptr noundef %22, i64 noundef %23)
  store i64 %24, ptr %3, align 8, !tbaa !9
  br label %9

25:                                               ; preds = %17
  call void @llvm.lifetime.start.p0(i64 8, ptr %4) #7
  %26 = load i64, ptr %3, align 8, !tbaa !9
  %27 = add i64 %26, 4
  store i64 %27, ptr %4, align 8, !tbaa !9
  %28 = load ptr, ptr %2, align 8, !tbaa !25
  %29 = getelementptr inbounds nuw %struct._PyRWMutex, ptr %28, i32 0, i32 0
  %30 = load i64, ptr %4, align 8, !tbaa !9
  %31 = call i32 @_Py_atomic_compare_exchange_uintptr(ptr noundef %29, ptr noundef %3, i64 noundef %30)
  %32 = icmp ne i32 %31, 0
  br i1 %32, label %34, label %33

33:                                               ; preds = %25
  store i32 3, ptr %5, align 4
  br label %35

34:                                               ; preds = %25
  store i32 1, ptr %5, align 4
  br label %35

35:                                               ; preds = %34, %33
  call void @llvm.lifetime.end.p0(i64 8, ptr %4) #7
  %36 = load i32, ptr %5, align 4
  switch i32 %36, label %37 [
    i32 3, label %9
  ]

37:                                               ; preds = %35
  call void @llvm.lifetime.end.p0(i64 8, ptr %3) #7
  ret void
}