; Function Attrs: nounwind uwtable
define dso_local void @_PyRWMutex_RLock(ptr noundef %0) local_unnamed_addr #0 {
  %2 = alloca i64, align 8
  %3 = alloca i64, align 8
  %4 = load atomic i64, ptr %0 monotonic, align 8
  br label %.backedge

.backedge:                                        ; preds = %.backedge.backedge, %1
  %.0 = phi i64 [ %4, %1 ], [ %.0.be, %.backedge.backedge ]
  %5 = and i64 %.0, 1
  %.not = icmp eq i64 %5, 0
  br i1 %.not, label %18, label %6

6:                                                ; preds = %.backedge
  call void @llvm.lifetime.start.p0(i64 8, ptr nonnull %3)
  store i64 %.0, ptr %3, align 8, !tbaa !4
  %7 = and i64 %.0, 2
  %8 = icmp eq i64 %7, 0
  br i1 %8, label %9, label %15

9:                                                ; preds = %6
  %10 = or disjoint i64 %.0, 2
  %11 = cmpxchg ptr %0, i64 %.0, i64 %10 seq_cst seq_cst, align 8
  %12 = extractvalue { i64, i1 } %11, 1
  br i1 %12, label %.thread.i, label %13

.thread.i:                                        ; preds = %9
  store i64 %10, ptr %3, align 8, !tbaa !4
  br label %15

13:                                               ; preds = %9
  %14 = extractvalue { i64, i1 } %11, 0
  br label %rwmutex_set_parked_and_wait.exit

15:                                               ; preds = %.thread.i, %6
  %16 = call i32 @_PyParkingLot_Park(ptr noundef nonnull %0, ptr noundef nonnull %3, i64 noundef 8, i64 noundef -1, ptr noundef null, i32 noundef 1) #8
  %17 = load atomic i64, ptr %0 monotonic, align 8
  br label %rwmutex_set_parked_and_wait.exit

rwmutex_set_parked_and_wait.exit:                 ; preds = %13, %15
  %.1.i = phi i64 [ %14, %13 ], [ %17, %15 ]
  call void @llvm.lifetime.end.p0(i64 8, ptr nonnull %3)
  br label %.backedge.backedge

.backedge.backedge:                               ; preds = %rwmutex_set_parked_and_wait.exit, %rwmutex_set_parked_and_wait.exit9, %_Py_atomic_compare_exchange_uintptr.exit
  %.0.be = phi i64 [ %26, %_Py_atomic_compare_exchange_uintptr.exit ], [ %21, %rwmutex_set_parked_and_wait.exit9 ], [ %.1.i, %rwmutex_set_parked_and_wait.exit ]
  br label %.backedge

18:                                               ; preds = %.backedge
  %19 = and i64 %.0, 2
  %.not5 = icmp eq i64 %19, 0
  br i1 %.not5, label %22, label %rwmutex_set_parked_and_wait.exit9

rwmutex_set_parked_and_wait.exit9:                ; preds = %18
  call void @llvm.lifetime.start.p0(i64 8, ptr nonnull %2)
  store i64 %.0, ptr %2, align 8, !tbaa !4
  %20 = call i32 @_PyParkingLot_Park(ptr noundef nonnull %0, ptr noundef nonnull %2, i64 noundef 8, i64 noundef -1, ptr noundef null, i32 noundef 1) #8
  %21 = load atomic i64, ptr %0 monotonic, align 8
  call void @llvm.lifetime.end.p0(i64 8, ptr nonnull %2)
  br label %.backedge.backedge

22:                                               ; preds = %18
  %23 = add i64 %.0, 4
  %24 = cmpxchg ptr %0, i64 %.0, i64 %23 seq_cst seq_cst, align 8
  %25 = extractvalue { i64, i1 } %24, 1
  br i1 %25, label %27, label %_Py_atomic_compare_exchange_uintptr.exit

_Py_atomic_compare_exchange_uintptr.exit:         ; preds = %22
  %26 = extractvalue { i64, i1 } %24, 0
  br label %.backedge.backedge

27:                                               ; preds = %22
  ret void
}